; Function Attrs: nounwind uwtable
define hidden void @_ir_MERGE_N(ptr nocapture noundef %0, i32 noundef %1, ptr nocapture noundef readonly %2) local_unnamed_addr #0 {
  %4 = icmp eq i32 %1, 1
  br i1 %4, label %5, label %51

5:                                                ; preds = %3
  %6 = load i32, ptr %2, align 4
  %.not.i = icmp eq i32 %6, 0
  br i1 %.not.i, label %._crit_edge.i, label %7

._crit_edge.i:                                    ; preds = %5
  %.phi.trans.insert.i = getelementptr inbounds i8, ptr %0, i64 8
  %.pre.i = load i32, ptr %.phi.trans.insert.i, align 8
  %.pre.i.i.pre.i = load ptr, ptr %0, align 8
  br label %21

7:                                                ; preds = %5
  %8 = add nsw i32 %6, 1
  %9 = getelementptr inbounds i8, ptr %0, i64 8
  %10 = load i32, ptr %9, align 8
  %11 = icmp eq i32 %8, %10
  %.pre.i.i.pre11.i = load ptr, ptr %0, align 8
  br i1 %11, label %12, label %21

12:                                               ; preds = %7
  %13 = sext i32 %6 to i64
  %14 = getelementptr inbounds %struct._ir_insn, ptr %.pre.i.i.pre11.i, i64 %13
  %15 = load i8, ptr %14, align 8
  %16 = icmp eq i8 %15, 98
  br i1 %16, label %17, label %21

17:                                               ; preds = %12
  %18 = getelementptr inbounds i8, ptr %14, i64 4
  %19 = load i32, ptr %18, align 4
  %20 = getelementptr inbounds i8, ptr %0, i64 248
  store i32 %19, ptr %20, align 8
  store i32 %6, ptr %9, align 8
  br label %_ir_BEGIN.exit

21:                                               ; preds = %12, %7, %._crit_edge.i
  %.pre.i.i.i = phi ptr [ %.pre.i.i.pre.i, %._crit_edge.i ], [ %.pre.i.i.pre11.i, %12 ], [ %.pre.i.i.pre11.i, %7 ]
  %22 = phi i32 [ %.pre.i, %._crit_edge.i ], [ %8, %12 ], [ %10, %7 ]
  %23 = getelementptr inbounds i8, ptr %0, i64 8
  %24 = getelementptr inbounds i8, ptr %0, i64 12
  %25 = load i32, ptr %24, align 4
  %.not.i.i.i.i = icmp slt i32 %22, %25
  br i1 %.not.i.i.i.i, label %ir_emit1.exit.i, label %26

26:                                               ; preds = %21
  %27 = getelementptr inbounds i8, ptr %0, i64 20
  %28 = load i32, ptr %27, align 4
  %29 = icmp slt i32 %25, 4096
  %30 = shl nsw i32 %25, 1
  %31 = icmp ult i32 %25, 8192
  %32 = add nuw nsw i32 %25, 4096
  %spec.select.i.i.i.i.i = select i1 %31, i32 8192, i32 %32
  %.sink.i.i.i.i.i = select i1 %29, i32 %30, i32 %spec.select.i.i.i.i.i
  store i32 %.sink.i.i.i.i.i, ptr %24, align 4
  %33 = sext i32 %28 to i64
  %34 = sub nsw i64 0, %33
  %35 = getelementptr inbounds %struct._ir_insn, ptr %.pre.i.i.i, i64 %34
  %36 = add nsw i32 %28, %.sink.i.i.i.i.i
  %37 = sext i32 %36 to i64
  %38 = shl nsw i64 %37, 4
  %39 = tail call ptr @_erealloc(ptr noundef %35, i64 noundef %38) #24
  %40 = load i32, ptr %27, align 4
  %41 = sext i32 %40 to i64
  %42 = getelementptr inbounds %struct._ir_insn, ptr %39, i64 %41
  store ptr %42, ptr %0, align 8
  br label %ir_emit1.exit.i

ir_emit1.exit.i:                                  ; preds = %26, %21
  %43 = phi ptr [ %.pre.i.i.i, %21 ], [ %42, %26 ]
  %44 = add nsw i32 %22, 1
  store i32 %44, ptr %23, align 8
  %45 = sext i32 %22 to i64
  %46 = getelementptr inbounds %struct._ir_insn, ptr %43, i64 %45
  store i32 91, ptr %46, align 8
  %47 = getelementptr inbounds i8, ptr %46, i64 4
  store i32 %6, ptr %47, align 4
  %48 = getelementptr inbounds i8, ptr %46, i64 8
  store i32 0, ptr %48, align 8
  %49 = getelementptr inbounds i8, ptr %46, i64 12
  store i32 0, ptr %49, align 4
  %50 = getelementptr inbounds i8, ptr %0, i64 248
  store i32 %22, ptr %50, align 8
  br label %_ir_BEGIN.exit

51:                                               ; preds = %3
  %52 = getelementptr inbounds i8, ptr %0, i64 8
  %53 = load i32, ptr %52, align 8
  %54 = sdiv i32 %1, 4
  %55 = add i32 %53, %54
  %56 = getelementptr inbounds i8, ptr %0, i64 12
  %57 = load i32, ptr %56, align 4
  %.not22.i = icmp slt i32 %55, %57
  %.pre30.i = load ptr, ptr %0, align 8
  br i1 %.not22.i, label %._crit_edge.i15, label %.lr.ph.i

.lr.ph.i:                                         ; preds = %51
  %58 = getelementptr inbounds i8, ptr %0, i64 20
  %.pre29.i = load i32, ptr %58, align 4
  br label %59

59:                                               ; preds = %59, %.lr.ph.i
  %60 = phi i32 [ %.pre29.i, %.lr.ph.i ], [ %74, %59 ]
  %61 = phi ptr [ %.pre30.i, %.lr.ph.i ], [ %76, %59 ]
  %62 = phi i32 [ %57, %.lr.ph.i ], [ %77, %59 ]
  %63 = icmp slt i32 %62, 4096
  %64 = shl nsw i32 %62, 1
  %65 = icmp ult i32 %62, 8192
  %66 = add nuw nsw i32 %62, 4096
  %spec.select.i.i = select i1 %65, i32 8192, i32 %66
  %.sink.i.i = select i1 %63, i32 %64, i32 %spec.select.i.i
  store i32 %.sink.i.i, ptr %56, align 4
  %67 = sext i32 %60 to i64
  %68 = sub nsw i64 0, %67
  %69 = getelementptr inbounds %struct._ir_insn, ptr %61, i64 %68
  %70 = add nsw i32 %.sink.i.i, %60
  %71 = sext i32 %70 to i64
  %72 = shl nsw i64 %71, 4
  %73 = tail call ptr @_erealloc(ptr noundef %69, i64 noundef %72) #24
  %74 = load i32, ptr %58, align 4
  %75 = sext i32 %74 to i64
  %76 = getelementptr inbounds %struct._ir_insn, ptr %73, i64 %75
  store ptr %76, ptr %0, align 8
  %77 = load i32, ptr %56, align 4
  %.not.i14 = icmp slt i32 %55, %77
  br i1 %.not.i14, label %._crit_edge.i15, label %59

._crit_edge.i15:                                  ; preds = %59, %51
  %78 = phi ptr [ %.pre30.i, %51 ], [ %76, %59 ]
  %79 = add nsw i32 %55, 1
  store i32 %79, ptr %52, align 8
  %80 = sext i32 %53 to i64
  %81 = getelementptr inbounds %struct._ir_insn, ptr %78, i64 %80
  %82 = shl i32 %1, 16
  %83 = or disjoint i32 %82, 96
  store i32 %83, ptr %81, align 8
  %.not2123.i = icmp slt i32 %1, 0
  br i1 %.not2123.i, label %ir_emit_N.exit.thread, label %ir_emit_N.exit

ir_emit_N.exit.thread:                            ; preds = %._crit_edge.i15
  %84 = getelementptr inbounds i8, ptr %0, i64 248
  store i32 %53, ptr %84, align 8
  br label %.lr.ph.preheader

ir_emit_N.exit:                                   ; preds = %._crit_edge.i15
  %85 = or i32 %1, 3
  %86 = shl nsw i64 %80, 4
  %87 = or disjoint i64 %86, 4
  %scevgep.i = getelementptr i8, ptr %78, i64 %87
  %88 = zext nneg i32 %85 to i64
  %89 = shl nuw nsw i64 %88, 2
  tail call void @llvm.memset.p0.i64(ptr noundef nonnull align 4 dereferenceable(1) %scevgep.i, i8 0, i64 %89, i1 false)
  %90 = getelementptr inbounds i8, ptr %0, i64 248
  store i32 %53, ptr %90, align 8
  %.not16 = icmp eq i32 %1, 0
  br i1 %.not16, label %_ir_BEGIN.exit, label %.lr.ph.preheader

.lr.ph.preheader:                                 ; preds = %ir_emit_N.exit.thread, %ir_emit_N.exit
  %.pn = load ptr, ptr %0, align 8
  %91 = getelementptr inbounds %struct._ir_insn, ptr %.pn, i64 %80
  %92 = sext i32 %1 to i64
  br label %.lr.ph

.lr.ph:                                           ; preds = %.lr.ph.preheader, %.lr.ph
  %indvars.iv = phi i64 [ %92, %.lr.ph.preheader ], [ %indvars.iv.next, %.lr.ph ]
  %indvars.iv.next = add nsw i64 %indvars.iv, -1
  %93 = getelementptr inbounds i32, ptr %2, i64 %indvars.iv.next
  %94 = load i32, ptr %93, align 4
  %95 = getelementptr inbounds i32, ptr %91, i64 %indvars.iv
  store i32 %94, ptr %95, align 4
  %96 = and i64 %indvars.iv.next, 4294967295
  %.not = icmp eq i64 %96, 0
  br i1 %.not, label %_ir_BEGIN.exit, label %.lr.ph

_ir_BEGIN.exit:                                   ; preds = %.lr.ph, %ir_emit_N.exit, %ir_emit1.exit.i, %17
  ret void
}